target datalayout = "e-m:e-p270:32:32-p271:32:32-p272:64:64-i64:64-i128:128-f80:128-n8:16:32:64-S128"
target triple = "x86_64-pc-linux-gnu"

%struct.stmm_table = type { ptr, ptr, i32, i32, i32, i32, double, ptr, ptr }
%struct.stmm_table_entry = type { ptr, ptr, ptr }

; Function Attrs: nounwind uwtable
define internal i32 @Abc_AbsInt(i32 noundef %0) #0 {
  %2 = alloca i32, align 4
  store i32 %0, ptr %2, align 4
  %3 = load i32, ptr %2, align 4
  %4 = icmp slt i32 %3, 0
  br i1 %4, label %5, label %8

5:                                                ; preds = %1
  %6 = load i32, ptr %2, align 4
  %7 = sub nsw i32 0, %6
  br label %10

8:                                                ; preds = %1
  %9 = load i32, ptr %2, align 4
  br label %10

10:                                               ; preds = %8, %5
  %11 = phi i32 [ %7, %5 ], [ %9, %8 ]
  ret i32 %11
}

; Function Attrs: nounwind uwtable
define i32 @stmm_delete_int(ptr noundef %0, ptr noundef %1, ptr noundef %2) #0 {
  %4 = alloca i32, align 4
  %5 = alloca ptr, align 8
  %6 = alloca ptr, align 8
  %7 = alloca ptr, align 8
  %8 = alloca i32, align 4
  %9 = alloca ptr, align 8
  %10 = alloca ptr, align 8
  %11 = alloca ptr, align 8
  store ptr %0, ptr %5, align 8
  store ptr %1, ptr %6, align 8
  store ptr %2, ptr %7, align 8
  %12 = load ptr, ptr %6, align 8
  %13 = load i64, ptr %12, align 8
  %14 = inttoptr i64 %13 to ptr
  store ptr %14, ptr %9, align 8
  %15 = load ptr, ptr %5, align 8
  %16 = getelementptr inbounds %struct.stmm_table, ptr %15, i32 0, i32 1
  %17 = load ptr, ptr %16, align 8
  %18 = icmp eq ptr %17, @stmm_ptrhash
  br i1 %18, label %19, label %29

19:                                               ; preds = %3
  %20 = load ptr, ptr %9, align 8
  %21 = ptrtoint ptr %20 to i64
  %22 = lshr i64 %21, 2
  %23 = load ptr, ptr %5, align 8
  %24 = getelementptr inbounds %struct.stmm_table, ptr %23, i32 0, i32 2
  %25 = load i32, ptr %24, align 8
  %26 = sext i32 %25 to i64
  %27 = urem i64 %22, %26
  %28 = trunc i64 %27 to i32
  br label %54

29:                                               ; preds = %3
  %30 = load ptr, ptr %5, align 8
  %31 = getelementptr inbounds %struct.stmm_table, ptr %30, i32 0, i32 1
  %32 = load ptr, ptr %31, align 8
  %33 = icmp eq ptr %32, @stmm_numhash
  br i1 %33, label %34, label %43

34:                                               ; preds = %29
  %35 = load ptr, ptr %9, align 8
  %36 = ptrtoint ptr %35 to i64
  %37 = trunc i64 %36 to i32
  %38 = call i32 @Abc_AbsInt(i32 noundef %37)
  %39 = load ptr, ptr %5, align 8
  %40 = getelementptr inbounds %struct.stmm_table, ptr %39, i32 0, i32 2
  %41 = load i32, ptr %40, align 8
  %42 = srem i32 %38, %41
  br label %52

43:                                               ; preds = %29
  %44 = load ptr, ptr %5, align 8
  %45 = getelementptr inbounds %struct.stmm_table, ptr %44, i32 0, i32 1
  %46 = load ptr, ptr %45, align 8
  %47 = load ptr, ptr %9, align 8
  %48 = load ptr, ptr %5, align 8
  %49 = getelementptr inbounds %struct.stmm_table, ptr %48, i32 0, i32 2
  %50 = load i32, ptr %49, align 8
  %51 = call i32 %46(ptr noundef %47, i32 noundef %50)
  br label %52

52:                                               ; preds = %43, %34
  %53 = phi i32 [ %42, %34 ], [ %51, %43 ]
  br label %54

54:                                               ; preds = %52, %19
  %55 = phi i32 [ %28, %19 ], [ %53, %52 ]
  store i32 %55, ptr %8, align 4
  %56 = load ptr, ptr %5, align 8
  %57 = getelementptr inbounds %struct.stmm_table, ptr %56, i32 0, i32 7
  %58 = load ptr, ptr %57, align 8
  %59 = load i32, ptr %8, align 4
  %60 = sext i32 %59 to i64
  %61 = getelementptr inbounds ptr, ptr %58, i64 %60
  store ptr %61, ptr %11, align 8
  %62 = load ptr, ptr %11, align 8
  %63 = load ptr, ptr %62, align 8
  store ptr %63, ptr %10, align 8
  br label %64

64:                                               ; preds = %103, %54
  %65 = load ptr, ptr %10, align 8
  %66 = icmp ne ptr %65, null
  br i1 %66, label %67, label %101

67:                                               ; preds = %64
  %68 = load ptr, ptr %5, align 8
  %69 = getelementptr inbounds %struct.stmm_table, ptr %68, i32 0, i32 0
  %70 = load ptr, ptr %69, align 8
  %71 = icmp eq ptr %70, @stmm_numcmp
  br i1 %71, label %77, label %72

72:                                               ; preds = %67
  %73 = load ptr, ptr %5, align 8
  %74 = getelementptr inbounds %struct.stmm_table, ptr %73, i32 0, i32 0
  %75 = load ptr, ptr %74, align 8
  %76 = icmp eq ptr %75, @stmm_ptrcmp
  br i1 %76, label %77, label %86

77:                                               ; preds = %72, %67
  %78 = load ptr, ptr %9, align 8
  %79 = load ptr, ptr %10, align 8
  %80 = getelementptr inbounds %struct.stmm_table_entry, ptr %79, i32 0, i32 0
  %81 = load ptr, ptr %80, align 8
  %82 = icmp ne ptr %78, %81
  %83 = zext i1 %82 to i32
  %84 = icmp eq i32 %83, 0
  %85 = zext i1 %84 to i32
  br label %97

86:                                               ; preds = %72
  %87 = load ptr, ptr %5, align 8
  %88 = getelementptr inbounds %struct.stmm_table, ptr %87, i32 0, i32 0
  %89 = load ptr, ptr %88, align 8
  %90 = load ptr, ptr %9, align 8
  %91 = load ptr, ptr %10, align 8
  %92 = getelementptr inbounds %struct.stmm_table_entry, ptr %91, i32 0, i32 0
  %93 = load ptr, ptr %92, align 8
  %94 = call i32 %89(ptr noundef %90, ptr noundef %93)
  %95 = icmp eq i32 %94, 0
  %96 = zext i1 %95 to i32
  br label %97

97:                                               ; preds = %86, %77
  %98 = phi i32 [ %85, %77 ], [ %96, %86 ]
  %99 = icmp ne i32 %98, 0
  %100 = xor i1 %99, true
  br label %101

101:                                              ; preds = %97, %64
  %102 = phi i1 [ false, %64 ], [ %100, %97 ]
  br i1 %102, label %103, label %108

103:                                              ; preds = %101
  %104 = load ptr, ptr %10, align 8
  %105 = getelementptr inbounds %struct.stmm_table_entry, ptr %104, i32 0, i32 2
  store ptr %105, ptr %11, align 8
  %106 = load ptr, ptr %11, align 8
  %107 = load ptr, ptr %106, align 8
  store ptr %107, ptr %10, align 8
  br label %64, !llvm.loop !18

108:                                              ; preds = %101
  %109 = load ptr, ptr %10, align 8
  %110 = icmp ne ptr %109, null
  br i1 %110, label %111, label %137

111:                                              ; preds = %108
  %112 = load ptr, ptr %5, align 8
  %113 = getelementptr inbounds %struct.stmm_table, ptr %112, i32 0, i32 5
  %114 = load i32, ptr %113, align 4
  %115 = icmp ne i32 %114, 0
  br i1 %115, label %116, label %137

116:                                              ; preds = %111
  %117 = load ptr, ptr %10, align 8
  %118 = getelementptr inbounds %struct.stmm_table_entry, ptr %117, i32 0, i32 2
  %119 = load ptr, ptr %118, align 8
  %120 = load ptr, ptr %11, align 8
  store ptr %119, ptr %120, align 8
  %121 = load ptr, ptr %5, align 8
  %122 = getelementptr inbounds %struct.stmm_table, ptr %121, i32 0, i32 7
  %123 = load ptr, ptr %122, align 8
  %124 = load i32, ptr %8, align 4
  %125 = sext i32 %124 to i64
  %126 = getelementptr inbounds ptr, ptr %123, i64 %125
  %127 = load ptr, ptr %126, align 8
  %128 = load ptr, ptr %10, align 8
  %129 = getelementptr inbounds %struct.stmm_table_entry, ptr %128, i32 0, i32 2
  store ptr %127, ptr %129, align 8
  %130 = load ptr, ptr %10, align 8
  %131 = load ptr, ptr %5, align 8
  %132 = getelementptr inbounds %struct.stmm_table, ptr %131, i32 0, i32 7
  %133 = load ptr, ptr %132, align 8
  %134 = load i32, ptr %8, align 4
  %135 = sext i32 %134 to i64
  %136 = getelementptr inbounds ptr, ptr %133, i64 %135
  store ptr %130, ptr %136, align 8
  br label %137

137:                                              ; preds = %116, %111, %108
  %138 = load ptr, ptr %10, align 8
  %139 = icmp eq ptr %138, null
  br i1 %139, label %140, label %141

140:                                              ; preds = %137
  store i32 0, ptr %4, align 4
  br label %167

141:                                              ; preds = %137
  %142 = load ptr, ptr %10, align 8
  %143 = getelementptr inbounds %struct.stmm_table_entry, ptr %142, i32 0, i32 2
  %144 = load ptr, ptr %143, align 8
  %145 = load ptr, ptr %11, align 8
  store ptr %144, ptr %145, align 8
  %146 = load ptr, ptr %7, align 8
  %147 = icmp ne ptr %146, null
  br i1 %147, label %148, label %153

148:                                              ; preds = %141
  %149 = load ptr, ptr %10, align 8
  %150 = getelementptr inbounds %struct.stmm_table_entry, ptr %149, i32 0, i32 1
  %151 = load ptr, ptr %150, align 8
  %152 = load ptr, ptr %7, align 8
  store ptr %151, ptr %152, align 8
  br label %153

153:                                              ; preds = %148, %141
  %154 = load ptr, ptr %10, align 8
  %155 = getelementptr inbounds %struct.stmm_table_entry, ptr %154, i32 0, i32 0
  %156 = load ptr, ptr %155, align 8
  %157 = ptrtoint ptr %156 to i64
  %158 = load ptr, ptr %6, align 8
  store i64 %157, ptr %158, align 8
  %159 = load ptr, ptr %5, align 8
  %160 = getelementptr inbounds %struct.stmm_table, ptr %159, i32 0, i32 8
  %161 = load ptr, ptr %160, align 8
  %162 = load ptr, ptr %10, align 8
  call void @Extra_MmFixedEntryRecycle(ptr noundef %161, ptr noundef %162)
  %163 = load ptr, ptr %5, align 8
  %164 = getelementptr inbounds %struct.stmm_table, ptr %163, i32 0, i32 3
  %165 = load i32, ptr %164, align 4
  %166 = add nsw i32 %165, -1
  store i32 %166, ptr %164, align 4
  store i32 1, ptr %4, align 4
  br label %167

167:                                              ; preds = %153, %140
  %168 = load i32, ptr %4, align 4
  ret i32 %168
}