; Function Attrs: nounwind uwtable
define range(i32 0, 2) i32 @stmm_delete_int(ptr noundef captures(none) %0, ptr noundef captures(none) %1, ptr noundef writeonly %2) local_unnamed_addr #0 {
  %4 = load i64, ptr %1, align 8
  %5 = inttoptr i64 %4 to ptr
  %6 = getelementptr inbounds nuw i8, ptr %0, i64 8
  %7 = load ptr, ptr %6, align 8
  %8 = icmp eq ptr %7, @stmm_ptrhash
  br i1 %8, label %9, label %16

9:                                                ; preds = %3
  %10 = lshr i64 %4, 2
  %11 = getelementptr inbounds nuw i8, ptr %0, i64 16
  %12 = load i32, ptr %11, align 8
  %13 = sext i32 %12 to i64
  %14 = urem i64 %10, %13
  %15 = trunc i64 %14 to i32
  br label %28

16:                                               ; preds = %3
  %17 = icmp eq ptr %7, @stmm_numhash
  br i1 %17, label %18, label %24

18:                                               ; preds = %16
  %19 = trunc i64 %4 to i32
  %20 = tail call range(i32 0, -2147483648) i32 @llvm.abs.i32(i32 %19, i1 true)
  %21 = getelementptr inbounds nuw i8, ptr %0, i64 16
  %22 = load i32, ptr %21, align 8
  %23 = srem i32 %20, %22
  br label %28

24:                                               ; preds = %16
  %25 = getelementptr inbounds nuw i8, ptr %0, i64 16
  %26 = load i32, ptr %25, align 8
  %27 = tail call i32 %7(ptr noundef %5, i32 noundef %26) #13
  br label %28

28:                                               ; preds = %18, %24, %9
  %29 = phi i32 [ %15, %9 ], [ %23, %18 ], [ %27, %24 ]
  %30 = getelementptr inbounds nuw i8, ptr %0, i64 40
  %31 = load ptr, ptr %30, align 8
  %32 = sext i32 %29 to i64
  %33 = getelementptr inbounds ptr, ptr %31, i64 %32
  %.04455 = load ptr, ptr %33, align 8
  %.not56 = icmp eq ptr %.04455, null
  br i1 %.not56, label %.critedge52, label %.lr.ph

.lr.ph:                                           ; preds = %28, %42
  %.04458 = phi ptr [ %.044, %42 ], [ %.04455, %28 ]
  %.057 = phi ptr [ %43, %42 ], [ %33, %28 ]
  %34 = load ptr, ptr %0, align 8
  %35 = icmp eq ptr %34, @stmm_numcmp
  %36 = icmp eq ptr %34, @stmm_ptrcmp
  %or.cond = or i1 %35, %36
  %37 = load ptr, ptr %.04458, align 8
  br i1 %or.cond, label %38, label %39

38:                                               ; preds = %.lr.ph
  %.not49 = icmp eq ptr %37, %5
  br i1 %.not49, label %.critedge, label %42

39:                                               ; preds = %.lr.ph
  %40 = tail call i32 %34(ptr noundef %5, ptr noundef %37) #13
  %41 = icmp eq i32 %40, 0
  br i1 %41, label %.critedge, label %42

42:                                               ; preds = %38, %39
  %43 = getelementptr inbounds nuw i8, ptr %.04458, i64 16
  %.044 = load ptr, ptr %43, align 8
  %.not = icmp eq ptr %.044, null
  br i1 %.not, label %.critedge52, label %.lr.ph, !llvm.loop !17

.critedge:                                        ; preds = %39, %38
  %44 = getelementptr inbounds nuw i8, ptr %0, i64 28
  %45 = load i32, ptr %44, align 4
  %.not50 = icmp eq i32 %45, 0
  br i1 %.not50, label %54, label %46

46:                                               ; preds = %.critedge
  %47 = getelementptr inbounds nuw i8, ptr %.04458, i64 16
  %48 = load ptr, ptr %47, align 8
  store ptr %48, ptr %.057, align 8
  %49 = load ptr, ptr %30, align 8
  %50 = getelementptr inbounds ptr, ptr %49, i64 %32
  %51 = load ptr, ptr %50, align 8
  store ptr %51, ptr %47, align 8
  %52 = load ptr, ptr %30, align 8
  %53 = getelementptr inbounds ptr, ptr %52, i64 %32
  store ptr %.04458, ptr %53, align 8
  br label %54

54:                                               ; preds = %46, %.critedge
  %55 = getelementptr inbounds nuw i8, ptr %.04458, i64 16
  %56 = load ptr, ptr %55, align 8
  store ptr %56, ptr %.057, align 8
  %.not51 = icmp eq ptr %2, null
  br i1 %.not51, label %60, label %57

57:                                               ; preds = %54
  %58 = getelementptr inbounds nuw i8, ptr %.04458, i64 8
  %59 = load ptr, ptr %58, align 8
  store ptr %59, ptr %2, align 8
  br label %60

60:                                               ; preds = %57, %54
  %61 = load ptr, ptr %.04458, align 8
  %62 = ptrtoint ptr %61 to i64
  store i64 %62, ptr %1, align 8
  %63 = getelementptr inbounds nuw i8, ptr %0, i64 48
  %64 = load ptr, ptr %63, align 8
  tail call void @Extra_MmFixedEntryRecycle(ptr noundef %64, ptr noundef nonnull %.04458) #13
  %65 = getelementptr inbounds nuw i8, ptr %0, i64 20
  %66 = load i32, ptr %65, align 4
  %67 = add nsw i32 %66, -1
  store i32 %67, ptr %65, align 4
  br label %.critedge52

.critedge52:                                      ; preds = %42, %28, %60
  %.045 = phi i32 [ 1, %60 ], [ 0, %28 ], [ 0, %42 ]
  ret i32 %.045
}